; Function Attrs: mustprogress uwtable
define noundef nonnull ptr @newConstraint(ptr noundef %0, ptr noundef %1, double noundef %2) local_unnamed_addr #3 personality ptr @__gxx_personality_v0 {
  %4 = tail call noalias noundef nonnull dereferenceable(48) ptr @_Znwm(i64 noundef 48) #21
  invoke void @_ZN10ConstraintC1EP8VariableS1_d(ptr noundef nonnull align 8 dereferenceable(42) %4, ptr noundef %0, ptr noundef %1, double noundef %2)
          to label %5 unwind label %6

5:                                                ; preds = %3
  ret ptr %4

6:                                                ; preds = %3
  %7 = landingpad { ptr, i32 }
          cleanup
  tail call void @_ZdlPvm(ptr noundef nonnull %4, i64 noundef 48) #22
  resume { ptr, i32 } %7
}